target datalayout = "e-m:e-p270:32:32-p271:32:32-p272:64:64-i64:64-i128:128-f80:128-n8:16:32:64-S128"
target triple = "x86_64-pc-linux-gnu"

%struct._FuncCandidateList = type { ptr, i32, i32, i32, i32, i32, i32, ptr, [0 x i32] }

; Function Attrs: nounwind uwtable
define dso_local i32 @func_match_argtypes(i32 noundef %0, ptr noundef %1, ptr noundef %2, ptr noundef %3) #0 {
  %5 = alloca i32, align 4
  %6 = alloca ptr, align 8
  %7 = alloca ptr, align 8
  %8 = alloca ptr, align 8
  %9 = alloca ptr, align 8
  %10 = alloca ptr, align 8
  %11 = alloca i32, align 4
  store i32 %0, ptr %5, align 4
  store ptr %1, ptr %6, align 8
  store ptr %2, ptr %7, align 8
  store ptr %3, ptr %8, align 8
  call void @llvm.lifetime.start.p0(i64 8, ptr %9) #7
  call void @llvm.lifetime.start.p0(i64 8, ptr %10) #7
  call void @llvm.lifetime.start.p0(i64 4, ptr %11) #7
  store i32 0, ptr %11, align 4
  %12 = load ptr, ptr %8, align 8
  store ptr null, ptr %12, align 8
  %13 = load ptr, ptr %7, align 8
  store ptr %13, ptr %9, align 8
  br label %14

14:                                               ; preds = %37, %4
  %15 = load ptr, ptr %9, align 8
  %16 = icmp ne ptr %15, null
  br i1 %16, label %17, label %39

17:                                               ; preds = %14
  %18 = load ptr, ptr %9, align 8
  %19 = getelementptr inbounds nuw %struct._FuncCandidateList, ptr %18, i32 0, i32 0
  %20 = load ptr, ptr %19, align 8
  store ptr %20, ptr %10, align 8
  %21 = load i32, ptr %5, align 4
  %22 = load ptr, ptr %6, align 8
  %23 = load ptr, ptr %9, align 8
  %24 = getelementptr inbounds nuw %struct._FuncCandidateList, ptr %23, i32 0, i32 8
  %25 = getelementptr inbounds [0 x i32], ptr %24, i64 0, i64 0
  %26 = call zeroext i1 @can_coerce_type(i32 noundef %21, ptr noundef %22, ptr noundef %25, i32 noundef 0)
  br i1 %26, label %27, label %36

27:                                               ; preds = %17
  %28 = load ptr, ptr %8, align 8
  %29 = load ptr, ptr %28, align 8
  %30 = load ptr, ptr %9, align 8
  %31 = getelementptr inbounds nuw %struct._FuncCandidateList, ptr %30, i32 0, i32 0
  store ptr %29, ptr %31, align 8
  %32 = load ptr, ptr %9, align 8
  %33 = load ptr, ptr %8, align 8
  store ptr %32, ptr %33, align 8
  %34 = load i32, ptr %11, align 4
  %35 = add i32 %34, 1
  store i32 %35, ptr %11, align 4
  br label %36

36:                                               ; preds = %27, %17
  br label %37

37:                                               ; preds = %36
  %38 = load ptr, ptr %10, align 8
  store ptr %38, ptr %9, align 8
  br label %14, !llvm.loop !18

39:                                               ; preds = %14
  %40 = load i32, ptr %11, align 4
  call void @llvm.lifetime.end.p0(i64 4, ptr %11) #7
  call void @llvm.lifetime.end.p0(i64 8, ptr %10) #7
  call void @llvm.lifetime.end.p0(i64 8, ptr %9) #7
  ret i32 %40
}