; Function Attrs: nounwind uwtable
define dso_local i32 @func_match_argtypes(i32 noundef %0, ptr noundef %1, ptr noundef %2, ptr noundef captures(none) initializes((0, 8)) %3) local_unnamed_addr #0 {
  store ptr null, ptr %3, align 8
  %.not14 = icmp eq ptr %2, null
  br i1 %.not14, label %._crit_edge, label %.lr.ph

.lr.ph:                                           ; preds = %4, %11
  %.016 = phi i32 [ %.1, %11 ], [ 0, %4 ]
  %.01315 = phi ptr [ %5, %11 ], [ %2, %4 ]
  %5 = load ptr, ptr %.01315, align 8
  %6 = getelementptr inbounds nuw i8, ptr %.01315, i64 40
  %7 = tail call zeroext i1 @can_coerce_type(i32 noundef %0, ptr noundef %1, ptr noundef nonnull %6, i32 noundef 0) #8
  br i1 %7, label %8, label %11

8:                                                ; preds = %.lr.ph
  %9 = load ptr, ptr %3, align 8
  store ptr %9, ptr %.01315, align 8
  store ptr %.01315, ptr %3, align 8
  %10 = add i32 %.016, 1
  br label %11

11:                                               ; preds = %.lr.ph, %8
  %.1 = phi i32 [ %10, %8 ], [ %.016, %.lr.ph ]
  %.not = icmp eq ptr %5, null
  br i1 %.not, label %._crit_edge, label %.lr.ph, !llvm.loop !11

._crit_edge:                                      ; preds = %11, %4
  %.0.lcssa = phi i32 [ 0, %4 ], [ %.1, %11 ]
  ret i32 %.0.lcssa
}